target datalayout = "e-m:e-p270:32:32-p271:32:32-p272:64:64-i64:64-i128:128-f80:128-n8:16:32:64-S128"
target triple = "x86_64-pc-linux-gnu"

%struct.H5_user_cb_state_t = type { %struct.H5E_user_cb_state_t }
%struct.H5E_user_cb_state_t = type { i32, %union.anon, ptr }
%union.anon = type { ptr }
%struct.H5P_genprop_t = type { ptr, i64, ptr, i32, i8, ptr, ptr, ptr, ptr, ptr, ptr, ptr, ptr, ptr }

@H5P_init_g = external global i8, align 1
@H5_libterm_g = external global i8, align 1
@H5_H5P_genprop_t_reg_free_list = internal global { i8, [3 x i8], i32, i32, [4 x i8], ptr, i64, ptr } { i8 0, [3 x i8] zeroinitializer, i32 0, i32 0, [4 x i8] zeroinitializer, ptr @.str.86, i64 104, ptr null }, align 8

; Function Attrs: nounwind uwtable
define internal i32 @H5P__free_prop(ptr noundef %0) #0 {
  %2 = alloca ptr, align 8
  store ptr %0, ptr %2, align 8, !tbaa !68
  %3 = load i8, ptr @H5P_init_g, align 1, !tbaa !7, !range !9, !noundef !10
  %4 = trunc i8 %3 to i1
  br i1 %4, label %9, label %5

5:                                                ; preds = %1
  %6 = load i8, ptr @H5_libterm_g, align 1, !tbaa !7, !range !9, !noundef !10
  %7 = trunc i8 %6 to i1
  %8 = xor i1 %7, true
  br label %9

9:                                                ; preds = %5, %1
  %10 = phi i1 [ true, %1 ], [ %8, %5 ]
  %11 = xor i1 %10, true
  %12 = xor i1 %11, true
  %13 = zext i1 %12 to i32
  %14 = sext i32 %13 to i64
  %15 = call i64 @llvm.expect.i64(i64 %14, i64 1)
  %16 = icmp ne i64 %15, 0
  br i1 %16, label %17, label %40

17:                                               ; preds = %9
  %18 = load ptr, ptr %2, align 8, !tbaa !68
  %19 = getelementptr inbounds nuw %struct.H5P_genprop_t, ptr %18, i32 0, i32 2
  %20 = load ptr, ptr %19, align 8, !tbaa !75
  %21 = icmp ne ptr %20, null
  br i1 %21, label %22, label %27

22:                                               ; preds = %17
  %23 = load ptr, ptr %2, align 8, !tbaa !68
  %24 = getelementptr inbounds nuw %struct.H5P_genprop_t, ptr %23, i32 0, i32 2
  %25 = load ptr, ptr %24, align 8, !tbaa !75
  %26 = call ptr @H5MM_xfree(ptr noundef %25)
  br label %27

27:                                               ; preds = %22, %17
  %28 = load ptr, ptr %2, align 8, !tbaa !68
  %29 = getelementptr inbounds nuw %struct.H5P_genprop_t, ptr %28, i32 0, i32 4
  %30 = load i8, ptr %29, align 4, !tbaa !74, !range !9, !noundef !10
  %31 = trunc i8 %30 to i1
  br i1 %31, label %37, label %32

32:                                               ; preds = %27
  %33 = load ptr, ptr %2, align 8, !tbaa !68
  %34 = getelementptr inbounds nuw %struct.H5P_genprop_t, ptr %33, i32 0, i32 0
  %35 = load ptr, ptr %34, align 8, !tbaa !71
  %36 = call ptr @H5MM_xfree(ptr noundef %35)
  br label %37

37:                                               ; preds = %32, %27
  %38 = load ptr, ptr %2, align 8, !tbaa !68
  %39 = call ptr @H5FL_reg_free(ptr noundef @H5_H5P_genprop_t_reg_free_list, ptr noundef %38)
  store ptr %39, ptr %2, align 8, !tbaa !68
  br label %40

40:                                               ; preds = %37, %9
  ret i32 0
}

; Function Attrs: nounwind uwtable
define internal i32 @H5P__free_prop_cb(ptr noundef %0, ptr noundef %1, ptr noundef %2) #0 {
  %4 = alloca ptr, align 8
  %5 = alloca ptr, align 8
  %6 = alloca ptr, align 8
  %7 = alloca ptr, align 8
  %8 = alloca i8, align 1
  %9 = alloca %struct.H5_user_cb_state_t, align 8
  store ptr %0, ptr %4, align 8, !tbaa !40
  store ptr %1, ptr %5, align 8, !tbaa !40
  store ptr %2, ptr %6, align 8, !tbaa !40
  call void @llvm.lifetime.start.p0(i64 8, ptr %7) #8
  %10 = load ptr, ptr %4, align 8, !tbaa !40
  store ptr %10, ptr %7, align 8, !tbaa !68
  call void @llvm.lifetime.start.p0(i64 1, ptr %8) #8
  %11 = load ptr, ptr %6, align 8, !tbaa !40
  %12 = load i8, ptr %11, align 1, !tbaa !7, !range !9, !noundef !10
  %13 = trunc i8 %12 to i1
  %14 = zext i1 %13 to i8
  store i8 %14, ptr %8, align 1, !tbaa !7
  %15 = load i8, ptr @H5P_init_g, align 1, !tbaa !7, !range !9, !noundef !10
  %16 = trunc i8 %15 to i1
  br i1 %16, label %21, label %17

17:                                               ; preds = %3
  %18 = load i8, ptr @H5_libterm_g, align 1, !tbaa !7, !range !9, !noundef !10
  %19 = trunc i8 %18 to i1
  %20 = xor i1 %19, true
  br label %21

21:                                               ; preds = %17, %3
  %22 = phi i1 [ true, %3 ], [ %20, %17 ]
  %23 = xor i1 %22, true
  %24 = xor i1 %23, true
  %25 = zext i1 %24 to i32
  %26 = sext i32 %25 to i64
  %27 = call i64 @llvm.expect.i64(i64 %26, i64 1)
  %28 = icmp ne i64 %27, 0
  br i1 %28, label %29, label %56

29:                                               ; preds = %21
  %30 = load i8, ptr %8, align 1, !tbaa !7, !range !9, !noundef !10
  %31 = trunc i8 %30 to i1
  br i1 %31, label %32, label %53

32:                                               ; preds = %29
  %33 = load ptr, ptr %7, align 8, !tbaa !68
  %34 = getelementptr inbounds nuw %struct.H5P_genprop_t, ptr %33, i32 0, i32 13
  %35 = load ptr, ptr %34, align 8, !tbaa !88
  %36 = icmp ne ptr %35, null
  br i1 %36, label %37, label %53

37:                                               ; preds = %32
  call void @llvm.lifetime.start.p0(i64 24, ptr %9) #8
  %38 = call i32 @H5_user_cb_prepare(ptr noundef %9)
  %39 = load ptr, ptr %7, align 8, !tbaa !68
  %40 = getelementptr inbounds nuw %struct.H5P_genprop_t, ptr %39, i32 0, i32 13
  %41 = load ptr, ptr %40, align 8, !tbaa !88
  %42 = load ptr, ptr %7, align 8, !tbaa !68
  %43 = getelementptr inbounds nuw %struct.H5P_genprop_t, ptr %42, i32 0, i32 0
  %44 = load ptr, ptr %43, align 8, !tbaa !71
  %45 = load ptr, ptr %7, align 8, !tbaa !68
  %46 = getelementptr inbounds nuw %struct.H5P_genprop_t, ptr %45, i32 0, i32 1
  %47 = load i64, ptr %46, align 8, !tbaa !76
  %48 = load ptr, ptr %7, align 8, !tbaa !68
  %49 = getelementptr inbounds nuw %struct.H5P_genprop_t, ptr %48, i32 0, i32 2
  %50 = load ptr, ptr %49, align 8, !tbaa !75
  %51 = call i32 %41(ptr noundef %44, i64 noundef %47, ptr noundef %50)
  %52 = call i32 @H5_user_cb_restore(ptr noundef %9)
  call void @llvm.lifetime.end.p0(i64 24, ptr %9) #8
  br label %53

53:                                               ; preds = %37, %32, %29
  %54 = load ptr, ptr %7, align 8, !tbaa !68
  %55 = call i32 @H5P__free_prop(ptr noundef %54)
  br label %56

56:                                               ; preds = %53, %21
  call void @llvm.lifetime.end.p0(i64 1, ptr %8) #8
  call void @llvm.lifetime.end.p0(i64 8, ptr %7) #8
  ret i32 0
}