; Function Attrs: nounwind uwtable
define internal noundef i32 @H5P__free_prop_cb(ptr noundef %0, ptr readnone captures(none) %1, ptr noundef readonly captures(none) %2) #0 {
  %4 = alloca %struct.H5_user_cb_state_t, align 8
  %5 = load i8, ptr @H5P_init_g, align 1, !tbaa !3, !range !7, !noundef !8
  %6 = trunc nuw i8 %5 to i1
  %7 = load i8, ptr @H5_libterm_g, align 1, !range !7
  %8 = trunc nuw i8 %7 to i1
  %9 = xor i1 %8, true
  %10 = select i1 %6, i1 true, i1 %9
  br i1 %10, label %11, label %H5P__free_prop.exit, !prof !9

11:                                               ; preds = %3
  %12 = load i8, ptr %2, align 1, !tbaa !3, !range !7, !noundef !8
  %13 = trunc nuw i8 %12 to i1
  br i1 %13, label %14, label %27

14:                                               ; preds = %11
  %15 = getelementptr inbounds nuw i8, ptr %0, i64 96
  %16 = load ptr, ptr %15, align 8, !tbaa !82
  %.not = icmp eq ptr %16, null
  br i1 %.not, label %27, label %17

17:                                               ; preds = %14
  call void @llvm.lifetime.start.p0(i64 24, ptr nonnull %4) #14
  %18 = call i32 @H5_user_cb_prepare(ptr noundef nonnull %4) #14
  %19 = load ptr, ptr %15, align 8, !tbaa !82
  %20 = load ptr, ptr %0, align 8, !tbaa !61
  %21 = getelementptr inbounds nuw i8, ptr %0, i64 8
  %22 = load i64, ptr %21, align 8, !tbaa !73
  %23 = getelementptr inbounds nuw i8, ptr %0, i64 16
  %24 = load ptr, ptr %23, align 8, !tbaa !72
  %25 = call i32 %19(ptr noundef %20, i64 noundef %22, ptr noundef %24) #14
  %26 = call i32 @H5_user_cb_restore(ptr noundef nonnull %4) #14
  call void @llvm.lifetime.end.p0(i64 24, ptr nonnull %4) #14
  %.pre = load i8, ptr @H5P_init_g, align 1, !tbaa !3, !range !7
  %.pre8 = load i8, ptr @H5_libterm_g, align 1, !range !7
  %.pre9 = trunc nuw i8 %.pre to i1
  %.pre10 = trunc nuw i8 %.pre8 to i1
  %.pre12 = xor i1 %.pre10, true
  br label %27

27:                                               ; preds = %17, %14, %11
  %.pre-phi13 = phi i1 [ %.pre12, %17 ], [ %9, %14 ], [ %9, %11 ]
  %.pre-phi = phi i1 [ %.pre9, %17 ], [ %6, %14 ], [ %6, %11 ]
  %28 = select i1 %.pre-phi, i1 true, i1 %.pre-phi13
  br i1 %28, label %29, label %H5P__free_prop.exit, !prof !9

29:                                               ; preds = %27
  %30 = getelementptr inbounds nuw i8, ptr %0, i64 16
  %31 = load ptr, ptr %30, align 8, !tbaa !72
  %.not.i = icmp eq ptr %31, null
  br i1 %.not.i, label %34, label %32

32:                                               ; preds = %29
  %33 = call ptr @H5MM_xfree(ptr noundef nonnull %31) #14
  br label %34

34:                                               ; preds = %32, %29
  %35 = getelementptr inbounds nuw i8, ptr %0, i64 28
  %36 = load i8, ptr %35, align 4, !tbaa !71, !range !7, !noundef !8
  %37 = trunc nuw i8 %36 to i1
  br i1 %37, label %41, label %38

38:                                               ; preds = %34
  %39 = load ptr, ptr %0, align 8, !tbaa !61
  %40 = call ptr @H5MM_xfree(ptr noundef %39) #14
  br label %41

41:                                               ; preds = %38, %34
  %42 = call ptr @H5FL_reg_free(ptr noundef nonnull @H5_H5P_genprop_t_reg_free_list, ptr noundef nonnull %0) #14
  br label %H5P__free_prop.exit

H5P__free_prop.exit:                              ; preds = %41, %27, %3
  ret i32 0
}